; Function Attrs: mustprogress nounwind uwtable
define hidden void @_ZNK5clang6driver10toolchains15HIPSPVToolChain28AddClangCXXStdlibIncludeArgsERKN4llvm3opt7ArgListERNS3_11SmallVectorIPKcLj16EEE(ptr nocapture noundef nonnull readonly align 8 dereferenceable(2176) %0, ptr noundef nonnull align 8 dereferenceable(176) %1, ptr noundef nonnull align 8 dereferenceable(144) %2) unnamed_addr #0 align 2 {
  %4 = getelementptr inbounds nuw i8, ptr %0, i64 2168
  %5 = load ptr, ptr %4, align 8
  %6 = load ptr, ptr %5, align 8
  %7 = getelementptr inbounds i8, ptr %6, i64 608
  %8 = load ptr, ptr %7, align 8
  tail call void %8(ptr noundef nonnull align 8 dereferenceable(2168) %5, ptr noundef nonnull align 8 dereferenceable(176) %1, ptr noundef nonnull align 8 dereferenceable(144) %2) #12
  ret void
}